; Function Attrs: nofree nounwind memory(read) uwtable
define hidden noundef ptr @SDL_getenv_unsafe_REAL(ptr noundef readonly captures(address_is_null) %0) local_unnamed_addr #7 {
  %.not = icmp eq ptr %0, null
  br i1 %.not, label %7, label %2

2:                                                ; preds = %1
  %3 = load i8, ptr %0, align 1
  %4 = icmp eq i8 %3, 0
  br i1 %4, label %7, label %5

5:                                                ; preds = %2
  %6 = tail call ptr @getenv(ptr noundef nonnull %0) #11
  br label %7

7:                                                ; preds = %1, %2, %5
  %.0 = phi ptr [ %6, %5 ], [ null, %2 ], [ null, %1 ]
  ret ptr %.0
}